; Function Attrs: nounwind uwtable
define dso_local void @fsync_component_or_die(i32 noundef %0, i32 noundef %1, ptr noundef %2) local_unnamed_addr #0 {
  %4 = load i32, ptr @fsync_components, align 4, !tbaa !9
  %5 = and i32 %4, %0
  %.not = icmp eq i32 %5, 0
  br i1 %.not, label %fsync_or_die.exit, label %6

6:                                                ; preds = %3
  %7 = load i32, ptr @use_fsync, align 4, !tbaa !9
  %8 = icmp slt i32 %7, 0
  br i1 %8, label %9, label %11

9:                                                ; preds = %6
  %10 = tail call i32 @git_env_bool(ptr noundef nonnull @.str.6, i32 noundef 1) #8
  store i32 %10, ptr @use_fsync, align 4, !tbaa !9
  br label %11

11:                                               ; preds = %9, %6
  %12 = phi i32 [ %10, %9 ], [ %7, %6 ]
  %.not.i.i = icmp eq i32 %12, 0
  br i1 %.not.i.i, label %fsync_or_die.exit, label %13

13:                                               ; preds = %11
  %14 = load i32, ptr @fsync_method, align 4, !tbaa !9
  %15 = icmp eq i32 %14, 1
  br i1 %15, label %16, label %maybe_fsync.exit.i

16:                                               ; preds = %13
  %17 = tail call i32 @git_fsync(i32 noundef %1, i32 noundef 0) #8
  %18 = icmp sgt i32 %17, -1
  br i1 %18, label %fsync_or_die.exit, label %maybe_fsync.exit.i

maybe_fsync.exit.i:                               ; preds = %16, %13
  %19 = tail call i32 @git_fsync(i32 noundef %1, i32 noundef 1) #8
  %20 = icmp slt i32 %19, 0
  br i1 %20, label %21, label %fsync_or_die.exit

21:                                               ; preds = %maybe_fsync.exit.i
  tail call void (ptr, ...) @die_errno(ptr noundef nonnull @.str.3, ptr noundef %2) #10
  unreachable

fsync_or_die.exit:                                ; preds = %maybe_fsync.exit.i, %16, %11, %3
  ret void
}